target datalayout = "e-m:e-p270:32:32-p271:32:32-p272:64:64-i64:64-i128:128-f80:128-n8:16:32:64-S128"
target triple = "x86_64-pc-linux-gnu"

%struct._lv_obj_t = type { ptr, ptr, ptr, ptr, ptr, %struct.lv_area_t, i32, i16, i16 }
%struct.lv_area_t = type { i32, i32, i32, i32 }
%struct._lv_obj_style_t = type { ptr, i32 }

; Function Attrs: inlinehint nounwind uwtable
define internal void @lv_memzero(ptr noundef %0, i64 noundef %1) #3 {
  %3 = alloca ptr, align 8
  %4 = alloca i64, align 8
  store ptr %0, ptr %3, align 8, !tbaa !31
  store i64 %1, ptr %4, align 8, !tbaa !66
  %5 = load ptr, ptr %3, align 8, !tbaa !31
  %6 = load i64, ptr %4, align 8, !tbaa !66
  call void @lv_memset(ptr noundef %5, i8 noundef zeroext 0, i64 noundef %6)
  ret void
}

; Function Attrs: nounwind uwtable
define internal ptr @get_trans_style(ptr noundef %0, i32 noundef %1) #0 {
  %3 = alloca ptr, align 8
  %4 = alloca ptr, align 8
  %5 = alloca i32, align 4
  %6 = alloca i32, align 4
  %7 = alloca i32, align 4
  store ptr %0, ptr %4, align 8, !tbaa !30
  store i32 %1, ptr %5, align 4, !tbaa !32
  call void @llvm.lifetime.start.p0(i64 4, ptr %6) #6
  store i32 0, ptr %6, align 4, !tbaa !32
  br label %8

8:                                                ; preds = %43, %2
  %9 = load i32, ptr %6, align 4, !tbaa !32
  %10 = load ptr, ptr %4, align 8, !tbaa !30
  %11 = getelementptr inbounds nuw %struct._lv_obj_t, ptr %10, i32 0, i32 8
  %12 = load i16, ptr %11, align 2
  %13 = lshr i16 %12, 4
  %14 = and i16 %13, 63
  %15 = zext i16 %14 to i32
  %16 = icmp ult i32 %9, %15
  br i1 %16, label %17, label %46

17:                                               ; preds = %8
  %18 = load ptr, ptr %4, align 8, !tbaa !30
  %19 = getelementptr inbounds nuw %struct._lv_obj_t, ptr %18, i32 0, i32 3
  %20 = load ptr, ptr %19, align 8, !tbaa !33
  %21 = load i32, ptr %6, align 4, !tbaa !32
  %22 = zext i32 %21 to i64
  %23 = getelementptr inbounds nuw %struct._lv_obj_style_t, ptr %20, i64 %22
  %24 = getelementptr inbounds nuw %struct._lv_obj_style_t, ptr %23, i32 0, i32 1
  %25 = load i32, ptr %24, align 8
  %26 = lshr i32 %25, 25
  %27 = and i32 %26, 1
  %28 = icmp ne i32 %27, 0
  br i1 %28, label %29, label %42

29:                                               ; preds = %17
  %30 = load ptr, ptr %4, align 8, !tbaa !30
  %31 = getelementptr inbounds nuw %struct._lv_obj_t, ptr %30, i32 0, i32 3
  %32 = load ptr, ptr %31, align 8, !tbaa !33
  %33 = load i32, ptr %6, align 4, !tbaa !32
  %34 = zext i32 %33 to i64
  %35 = getelementptr inbounds nuw %struct._lv_obj_style_t, ptr %32, i64 %34
  %36 = getelementptr inbounds nuw %struct._lv_obj_style_t, ptr %35, i32 0, i32 1
  %37 = load i32, ptr %36, align 8
  %38 = and i32 %37, 16777215
  %39 = load i32, ptr %5, align 4, !tbaa !32
  %40 = icmp eq i32 %38, %39
  br i1 %40, label %41, label %42

41:                                               ; preds = %29
  br label %46

42:                                               ; preds = %29, %17
  br label %43

43:                                               ; preds = %42
  %44 = load i32, ptr %6, align 4, !tbaa !32
  %45 = add i32 %44, 1
  store i32 %45, ptr %6, align 4, !tbaa !32
  br label %8, !llvm.loop !116

46:                                               ; preds = %41, %8
  %47 = load i32, ptr %6, align 4, !tbaa !32
  %48 = load ptr, ptr %4, align 8, !tbaa !30
  %49 = getelementptr inbounds nuw %struct._lv_obj_t, ptr %48, i32 0, i32 8
  %50 = load i16, ptr %49, align 2
  %51 = lshr i16 %50, 4
  %52 = and i16 %51, 63
  %53 = zext i16 %52 to i32
  %54 = icmp ne i32 %47, %53
  br i1 %54, label %55, label %62

55:                                               ; preds = %46
  %56 = load ptr, ptr %4, align 8, !tbaa !30
  %57 = getelementptr inbounds nuw %struct._lv_obj_t, ptr %56, i32 0, i32 3
  %58 = load ptr, ptr %57, align 8, !tbaa !33
  %59 = load i32, ptr %6, align 4, !tbaa !32
  %60 = zext i32 %59 to i64
  %61 = getelementptr inbounds nuw %struct._lv_obj_style_t, ptr %58, i64 %60
  store ptr %61, ptr %3, align 8
  store i32 1, ptr %7, align 4
  br label %170

62:                                               ; preds = %46
  %63 = load ptr, ptr %4, align 8, !tbaa !30
  %64 = getelementptr inbounds nuw %struct._lv_obj_t, ptr %63, i32 0, i32 8
  %65 = load i16, ptr %64, align 2
  %66 = lshr i16 %65, 4
  %67 = and i16 %66, 63
  %68 = add i16 %67, 1
  %69 = load i16, ptr %64, align 2
  %70 = and i16 %68, 63
  %71 = shl i16 %70, 4
  %72 = and i16 %69, -1009
  %73 = or i16 %72, %71
  store i16 %73, ptr %64, align 2
  br label %74

74:                                               ; preds = %62
  %75 = load ptr, ptr %4, align 8, !tbaa !30
  %76 = getelementptr inbounds nuw %struct._lv_obj_t, ptr %75, i32 0, i32 8
  %77 = load i16, ptr %76, align 2
  %78 = lshr i16 %77, 4
  %79 = and i16 %78, 63
  %80 = zext i16 %79 to i32
  %81 = icmp ne i32 %80, 0
  br i1 %81, label %88, label %82

82:                                               ; preds = %74
  br label %83

83:                                               ; preds = %82
  br label %84

84:                                               ; preds = %83
  br label %85

85:                                               ; preds = %84
  br label %86

86:                                               ; preds = %87, %85
  br label %87

87:                                               ; preds = %86
  br label %86

88:                                               ; preds = %74
  br label %89

89:                                               ; preds = %88
  br label %90

90:                                               ; preds = %89
  %91 = load ptr, ptr %4, align 8, !tbaa !30
  %92 = getelementptr inbounds nuw %struct._lv_obj_t, ptr %91, i32 0, i32 3
  %93 = load ptr, ptr %92, align 8, !tbaa !33
  %94 = load ptr, ptr %4, align 8, !tbaa !30
  %95 = getelementptr inbounds nuw %struct._lv_obj_t, ptr %94, i32 0, i32 8
  %96 = load i16, ptr %95, align 2
  %97 = lshr i16 %96, 4
  %98 = and i16 %97, 63
  %99 = zext i16 %98 to i64
  %100 = mul i64 %99, 16
  %101 = call ptr @lv_realloc(ptr noundef %93, i64 noundef %100)
  %102 = load ptr, ptr %4, align 8, !tbaa !30
  %103 = getelementptr inbounds nuw %struct._lv_obj_t, ptr %102, i32 0, i32 3
  store ptr %101, ptr %103, align 8, !tbaa !33
  %104 = load ptr, ptr %4, align 8, !tbaa !30
  %105 = getelementptr inbounds nuw %struct._lv_obj_t, ptr %104, i32 0, i32 8
  %106 = load i16, ptr %105, align 2
  %107 = lshr i16 %106, 4
  %108 = and i16 %107, 63
  %109 = zext i16 %108 to i32
  %110 = sub nsw i32 %109, 1
  store i32 %110, ptr %6, align 4, !tbaa !32
  br label %111

111:                                              ; preds = %128, %90
  %112 = load i32, ptr %6, align 4, !tbaa !32
  %113 = icmp ugt i32 %112, 0
  br i1 %113, label %114, label %131

114:                                              ; preds = %111
  %115 = load ptr, ptr %4, align 8, !tbaa !30
  %116 = getelementptr inbounds nuw %struct._lv_obj_t, ptr %115, i32 0, i32 3
  %117 = load ptr, ptr %116, align 8, !tbaa !33
  %118 = load i32, ptr %6, align 4, !tbaa !32
  %119 = zext i32 %118 to i64
  %120 = getelementptr inbounds nuw %struct._lv_obj_style_t, ptr %117, i64 %119
  %121 = load ptr, ptr %4, align 8, !tbaa !30
  %122 = getelementptr inbounds nuw %struct._lv_obj_t, ptr %121, i32 0, i32 3
  %123 = load ptr, ptr %122, align 8, !tbaa !33
  %124 = load i32, ptr %6, align 4, !tbaa !32
  %125 = sub i32 %124, 1
  %126 = zext i32 %125 to i64
  %127 = getelementptr inbounds nuw %struct._lv_obj_style_t, ptr %123, i64 %126
  call void @llvm.memcpy.p0.p0.i64(ptr align 8 %120, ptr align 8 %127, i64 16, i1 false), !tbaa.struct !42
  br label %128

128:                                              ; preds = %114
  %129 = load i32, ptr %6, align 4, !tbaa !32
  %130 = add i32 %129, -1
  store i32 %130, ptr %6, align 4, !tbaa !32
  br label %111, !llvm.loop !117

131:                                              ; preds = %111
  %132 = load ptr, ptr %4, align 8, !tbaa !30
  %133 = getelementptr inbounds nuw %struct._lv_obj_t, ptr %132, i32 0, i32 3
  %134 = load ptr, ptr %133, align 8, !tbaa !33
  %135 = getelementptr inbounds %struct._lv_obj_style_t, ptr %134, i64 0
  call void @lv_memzero(ptr noundef %135, i64 noundef 16)
  %136 = call ptr @lv_malloc(i64 noundef 16)
  %137 = load ptr, ptr %4, align 8, !tbaa !30
  %138 = getelementptr inbounds nuw %struct._lv_obj_t, ptr %137, i32 0, i32 3
  %139 = load ptr, ptr %138, align 8, !tbaa !33
  %140 = getelementptr inbounds %struct._lv_obj_style_t, ptr %139, i64 0
  %141 = getelementptr inbounds nuw %struct._lv_obj_style_t, ptr %140, i32 0, i32 0
  store ptr %136, ptr %141, align 8, !tbaa !45
  %142 = load ptr, ptr %4, align 8, !tbaa !30
  %143 = getelementptr inbounds nuw %struct._lv_obj_t, ptr %142, i32 0, i32 3
  %144 = load ptr, ptr %143, align 8, !tbaa !33
  %145 = getelementptr inbounds %struct._lv_obj_style_t, ptr %144, i64 0
  %146 = getelementptr inbounds nuw %struct._lv_obj_style_t, ptr %145, i32 0, i32 0
  %147 = load ptr, ptr %146, align 8, !tbaa !45
  call void @lv_style_init(ptr noundef %147)
  %148 = load ptr, ptr %4, align 8, !tbaa !30
  %149 = getelementptr inbounds nuw %struct._lv_obj_t, ptr %148, i32 0, i32 3
  %150 = load ptr, ptr %149, align 8, !tbaa !33
  %151 = getelementptr inbounds %struct._lv_obj_style_t, ptr %150, i64 0
  %152 = getelementptr inbounds nuw %struct._lv_obj_style_t, ptr %151, i32 0, i32 1
  %153 = load i32, ptr %152, align 8
  %154 = and i32 %153, -33554433
  %155 = or i32 %154, 33554432
  store i32 %155, ptr %152, align 8
  %156 = load i32, ptr %5, align 4, !tbaa !32
  %157 = load ptr, ptr %4, align 8, !tbaa !30
  %158 = getelementptr inbounds nuw %struct._lv_obj_t, ptr %157, i32 0, i32 3
  %159 = load ptr, ptr %158, align 8, !tbaa !33
  %160 = getelementptr inbounds %struct._lv_obj_style_t, ptr %159, i64 0
  %161 = getelementptr inbounds nuw %struct._lv_obj_style_t, ptr %160, i32 0, i32 1
  %162 = load i32, ptr %161, align 8
  %163 = and i32 %156, 16777215
  %164 = and i32 %162, -16777216
  %165 = or i32 %164, %163
  store i32 %165, ptr %161, align 8
  %166 = load ptr, ptr %4, align 8, !tbaa !30
  %167 = getelementptr inbounds nuw %struct._lv_obj_t, ptr %166, i32 0, i32 3
  %168 = load ptr, ptr %167, align 8, !tbaa !33
  %169 = getelementptr inbounds %struct._lv_obj_style_t, ptr %168, i64 0
  store ptr %169, ptr %3, align 8
  store i32 1, ptr %7, align 4
  br label %170

170:                                              ; preds = %131, %55
  call void @llvm.lifetime.end.p0(i64 4, ptr %6) #6
  %171 = load ptr, ptr %3, align 8
  ret ptr %171
}