; Function Attrs: nounwind uwtable
define internal fastcc ptr @get_trans_style(ptr noundef captures(none) %0, i32 noundef %1) unnamed_addr #0 {
  %3 = getelementptr inbounds nuw i8, ptr %0, i64 62
  %4 = load i16, ptr %3, align 2
  %5 = lshr i16 %4, 4
  %6 = and i16 %5, 63
  %7 = zext nneg i16 %6 to i32
  %.not52 = icmp eq i16 %6, 0
  br i1 %.not52, label %._crit_edge, label %.lr.ph

.lr.ph:                                           ; preds = %2
  %8 = getelementptr inbounds nuw i8, ptr %0, i64 24
  %9 = load ptr, ptr %8, align 8, !tbaa !38
  %wide.trip.count = zext nneg i16 %6 to i64
  br label %10

10:                                               ; preds = %.lr.ph, %16
  %indvars.iv = phi i64 [ 0, %.lr.ph ], [ %indvars.iv.next, %16 ]
  %11 = getelementptr inbounds nuw %struct._lv_obj_style_t, ptr %9, i64 %indvars.iv, i32 1
  %12 = load i32, ptr %11, align 8
  %13 = and i32 %12, 33554432
  %.not = icmp ne i32 %13, 0
  %14 = and i32 %12, 16777215
  %15 = icmp eq i32 %14, %1
  %or.cond = and i1 %.not, %15
  br i1 %or.cond, label %._crit_edge.loopexit, label %16

16:                                               ; preds = %10
  %indvars.iv.next = add nuw nsw i64 %indvars.iv, 1
  %exitcond.not = icmp eq i64 %indvars.iv.next, %wide.trip.count
  br i1 %exitcond.not, label %._crit_edge.thread, label %10, !llvm.loop !104

._crit_edge.loopexit:                             ; preds = %10
  %17 = trunc nuw nsw i64 %indvars.iv to i32
  br label %._crit_edge

._crit_edge:                                      ; preds = %._crit_edge.loopexit, %2
  %.0.lcssa = phi i32 [ 0, %2 ], [ %17, %._crit_edge.loopexit ]
  %.not32 = icmp eq i32 %.0.lcssa, %7
  br i1 %.not32, label %._crit_edge.thread, label %18

18:                                               ; preds = %._crit_edge
  %19 = getelementptr inbounds nuw i8, ptr %0, i64 24
  %20 = load ptr, ptr %19, align 8, !tbaa !38
  %21 = zext nneg i32 %.0.lcssa to i64
  %22 = getelementptr inbounds nuw %struct._lv_obj_style_t, ptr %20, i64 %21
  br label %61

._crit_edge.thread:                               ; preds = %16, %._crit_edge
  %23 = add i16 %4, 16
  %24 = and i16 %23, 1008
  %25 = and i16 %4, -1009
  %26 = or disjoint i16 %24, %25
  store i16 %26, ptr %3, align 2
  %27 = lshr i16 %23, 4
  %28 = and i16 %27, 63
  %.not33 = icmp eq i16 %28, 0
  br i1 %.not33, label %.preheader, label %29

.preheader:                                       ; preds = %._crit_edge.thread, %.preheader
  br label %.preheader

29:                                               ; preds = %._crit_edge.thread
  %30 = getelementptr inbounds nuw i8, ptr %0, i64 24
  %31 = load ptr, ptr %30, align 8, !tbaa !38
  %32 = shl nuw nsw i16 %28, 4
  %33 = zext nneg i16 %32 to i64
  %34 = tail call ptr @lv_realloc(ptr noundef %31, i64 noundef %33) #9
  store ptr %34, ptr %30, align 8, !tbaa !38
  %35 = load i16, ptr %3, align 2
  %36 = lshr i16 %35, 4
  %37 = and i16 %36, 63
  %38 = zext nneg i16 %37 to i32
  %.145 = add nsw i32 %38, -1
  %.not3446 = icmp eq i32 %.145, 0
  br i1 %.not3446, label %._crit_edge51, label %.lr.ph50.preheader

.lr.ph50.preheader:                               ; preds = %29
  %39 = zext i32 %.145 to i64
  br label %.lr.ph50

.lr.ph50:                                         ; preds = %.lr.ph50.preheader, %.lr.ph50
  %indvars.iv54 = phi i64 [ %39, %.lr.ph50.preheader ], [ %indvars.iv.next55, %.lr.ph50 ]
  %.1.in47 = phi i32 [ %38, %.lr.ph50.preheader ], [ %46, %.lr.ph50 ]
  %40 = load ptr, ptr %30, align 8, !tbaa !38
  %41 = getelementptr inbounds nuw %struct._lv_obj_style_t, ptr %40, i64 %indvars.iv54
  %42 = add i32 %.1.in47, -2
  %43 = zext i32 %42 to i64
  %44 = getelementptr inbounds nuw %struct._lv_obj_style_t, ptr %40, i64 %43
  tail call void @llvm.memcpy.p0.p0.i64(ptr noundef nonnull align 8 dereferenceable(16) %41, ptr noundef nonnull align 8 dereferenceable(16) %44, i64 16, i1 false), !tbaa.struct !46
  %indvars.iv.next55 = add nsw i64 %indvars.iv54, -1
  %45 = and i64 %indvars.iv.next55, 4294967295
  %.not34 = icmp eq i64 %45, 0
  %46 = trunc nuw i64 %indvars.iv54 to i32
  br i1 %.not34, label %._crit_edge51.loopexit, label %.lr.ph50, !llvm.loop !105

._crit_edge51.loopexit:                           ; preds = %.lr.ph50
  %.pre = load ptr, ptr %30, align 8, !tbaa !38
  br label %._crit_edge51

._crit_edge51:                                    ; preds = %._crit_edge51.loopexit, %29
  %47 = phi ptr [ %.pre, %._crit_edge51.loopexit ], [ %34, %29 ]
  tail call void @lv_memset(ptr noundef %47, i8 noundef zeroext 0, i64 noundef 16) #9
  %48 = tail call ptr @lv_malloc(i64 noundef 16) #9
  %49 = load ptr, ptr %30, align 8, !tbaa !38
  store ptr %48, ptr %49, align 8, !tbaa !49
  tail call void @lv_style_init(ptr noundef %48) #9
  %50 = load ptr, ptr %30, align 8, !tbaa !38
  %51 = getelementptr inbounds nuw i8, ptr %50, i64 8
  %52 = load i32, ptr %51, align 8
  %53 = or i32 %52, 33554432
  store i32 %53, ptr %51, align 8
  %54 = load ptr, ptr %30, align 8, !tbaa !38
  %55 = getelementptr inbounds nuw i8, ptr %54, i64 8
  %56 = load i32, ptr %55, align 8
  %57 = and i32 %1, 16777215
  %58 = and i32 %56, -16777216
  %59 = or disjoint i32 %58, %57
  store i32 %59, ptr %55, align 8
  %60 = load ptr, ptr %30, align 8, !tbaa !38
  br label %61

61:                                               ; preds = %._crit_edge51, %18
  %.031 = phi ptr [ %22, %18 ], [ %60, %._crit_edge51 ]
  ret ptr %.031
}